; Function Attrs: nofree norecurse nosync nounwind memory(read, inaccessiblemem: none) uwtable
define i32 @Gia_ManEquivCountOne(ptr noundef readonly captures(none) %0, i32 noundef %1) local_unnamed_addr #4 {
  %3 = getelementptr i8, ptr %0, i64 200
  %.val = load ptr, ptr %3, align 8, !tbaa !54
  %4 = sext i32 %1 to i64
  br label %5

5:                                                ; preds = %5, %2
  %.pn = phi i64 [ %4, %2 ], [ %8, %5 ]
  %.0 = phi i32 [ 1, %2 ], [ %7, %5 ]
  %.06.in = getelementptr inbounds i32, ptr %.val, i64 %.pn
  %.06 = load i32, ptr %.06.in, align 4, !tbaa !32
  %6 = icmp sgt i32 %.06, 0
  %7 = add nuw nsw i32 %.0, 1
  %8 = zext nneg i32 %.06 to i64
  br i1 %6, label %5, label %9, !llvm.loop !77

9:                                                ; preds = %5
  ret i32 %.0
}